; Function Attrs: mustprogress uwtable
define hidden void @_ZN14context_params20merge_default_paramsERK10params_ref(ptr noalias sret(%class.params_ref) align 8 %agg.result, ptr nocapture noundef nonnull readonly align 8 dereferenceable(120) %this, ptr noundef nonnull align 8 dereferenceable(8) %p) local_unnamed_addr #3 align 2 personality ptr @__gxx_personality_v0 {
entry:
  %m_auto_config = getelementptr inbounds i8, ptr %this, i64 72
  %0 = load i8, ptr %m_auto_config, align 8
  %1 = and i8 %0, 1
  %tobool.not = icmp eq i8 %1, 0
  br i1 %tobool.not, label %land.lhs.true, label %if.else

land.lhs.true:                                    ; preds = %entry
  %call = tail call noundef zeroext i1 @_ZNK10params_ref8containsEPKc(ptr noundef nonnull align 8 dereferenceable(8) %p, ptr noundef nonnull @.str.11)
  br i1 %call, label %if.else, label %if.then

if.then:                                          ; preds = %land.lhs.true
  tail call void @_ZN10params_refC1ERKS_(ptr noundef nonnull align 8 dereferenceable(8) %agg.result, ptr noundef nonnull align 8 dereferenceable(8) %p)
  invoke void @_ZN10params_ref8set_boolEPKcb(ptr noundef nonnull align 8 dereferenceable(8) %agg.result, ptr noundef nonnull @.str.11, i1 noundef zeroext false)
          to label %return unwind label %lpad

lpad:                                             ; preds = %if.then
  %2 = landingpad { ptr, i32 }
          cleanup
  tail call void @_ZN10params_refD1Ev(ptr noundef nonnull align 8 dereferenceable(8) %agg.result) #11
  resume { ptr, i32 } %2

if.else:                                          ; preds = %land.lhs.true, %entry
  tail call void @_ZN10params_refC1ERKS_(ptr noundef nonnull align 8 dereferenceable(8) %agg.result, ptr noundef nonnull align 8 dereferenceable(8) %p)
  br label %return

return:                                           ; preds = %if.then, %if.else
  ret void
}